target datalayout = "e-m:e-p270:32:32-p271:32:32-p272:64:64-i64:64-i128:128-f80:128-n8:16:32:64-S128"
target triple = "x86_64-pc-linux-gnu"

%struct.SHA3State = type { ptr, ptr, ptr, ptr, ptr, ptr }

@.str.2 = private unnamed_addr constant [15 x i8] c"implementation\00", align 1
@.str.3 = private unnamed_addr constant [5 x i8] c"HACL\00", align 1
@sha3_224_spec = internal global { ptr, i32, i32, i32, [4 x i8], ptr } { ptr @.str.4, i32 32, i32 0, i32 16640, [4 x i8] zeroinitializer, ptr @sha3_224_slots }, align 8
@sha3_256_spec = internal global { ptr, i32, i32, i32, [4 x i8], ptr } { ptr @.str.30, i32 32, i32 0, i32 16640, [4 x i8] zeroinitializer, ptr @sha3_256_slots }, align 8
@sha3_384_spec = internal global { ptr, i32, i32, i32, [4 x i8], ptr } { ptr @.str.33, i32 32, i32 0, i32 16640, [4 x i8] zeroinitializer, ptr @sha3_384_slots }, align 8
@sha3_512_spec = internal global { ptr, i32, i32, i32, [4 x i8], ptr } { ptr @.str.36, i32 32, i32 0, i32 16640, [4 x i8] zeroinitializer, ptr @sha3_512_slots }, align 8
@SHAKE128_spec = internal global { ptr, i32, i32, i32, [4 x i8], ptr } { ptr @.str.39, i32 32, i32 0, i32 16640, [4 x i8] zeroinitializer, ptr @SHAKE128slots }, align 8
@SHAKE256_spec = internal global { ptr, i32, i32, i32, [4 x i8], ptr } { ptr @.str.44, i32 32, i32 0, i32 16640, [4 x i8] zeroinitializer, ptr @SHAKE256slots }, align 8

; Function Attrs: inlinehint nounwind uwtable
define internal ptr @sha3_get_state(ptr noundef %0) #3 {
  %2 = alloca ptr, align 8
  %3 = alloca ptr, align 8
  store ptr %0, ptr %2, align 8, !tbaa !3
  call void @llvm.lifetime.start.p0(i64 8, ptr %3) #7
  %4 = load ptr, ptr %2, align 8, !tbaa !3
  %5 = call ptr @PyModule_GetState(ptr noundef %4)
  store ptr %5, ptr %3, align 8, !tbaa !8
  %6 = load ptr, ptr %3, align 8, !tbaa !8
  call void @llvm.lifetime.end.p0(i64 8, ptr %3) #7
  ret ptr %6
}

; Function Attrs: nounwind uwtable
define internal i32 @_sha3_exec(ptr noundef %0) #0 {
  %2 = alloca i32, align 4
  %3 = alloca ptr, align 8
  %4 = alloca ptr, align 8
  %5 = alloca i32, align 4
  store ptr %0, ptr %3, align 8, !tbaa !3
  call void @llvm.lifetime.start.p0(i64 8, ptr %4) #7
  %6 = load ptr, ptr %3, align 8, !tbaa !3
  %7 = call ptr @sha3_get_state(ptr noundef %6)
  store ptr %7, ptr %4, align 8, !tbaa !8
  br label %8

8:                                                ; preds = %1
  %9 = load ptr, ptr %3, align 8, !tbaa !3
  %10 = call ptr @PyType_FromModuleAndSpec(ptr noundef %9, ptr noundef @sha3_224_spec, ptr noundef null)
  %11 = load ptr, ptr %4, align 8, !tbaa !8
  %12 = getelementptr inbounds nuw %struct.SHA3State, ptr %11, i32 0, i32 0
  store ptr %10, ptr %12, align 8, !tbaa !9
  %13 = load ptr, ptr %4, align 8, !tbaa !8
  %14 = getelementptr inbounds nuw %struct.SHA3State, ptr %13, i32 0, i32 0
  %15 = load ptr, ptr %14, align 8, !tbaa !9
  %16 = icmp eq ptr %15, null
  br i1 %16, label %17, label %18

17:                                               ; preds = %8
  store i32 -1, ptr %2, align 4
  store i32 1, ptr %5, align 4
  br label %139

18:                                               ; preds = %8
  %19 = load ptr, ptr %3, align 8, !tbaa !3
  %20 = load ptr, ptr %4, align 8, !tbaa !8
  %21 = getelementptr inbounds nuw %struct.SHA3State, ptr %20, i32 0, i32 0
  %22 = load ptr, ptr %21, align 8, !tbaa !9
  %23 = call i32 @PyModule_AddType(ptr noundef %19, ptr noundef %22)
  %24 = icmp slt i32 %23, 0
  br i1 %24, label %25, label %26

25:                                               ; preds = %18
  store i32 -1, ptr %2, align 4
  store i32 1, ptr %5, align 4
  br label %139

26:                                               ; preds = %18
  br label %27

27:                                               ; preds = %26
  br label %28

28:                                               ; preds = %27
  br label %29

29:                                               ; preds = %28
  %30 = load ptr, ptr %3, align 8, !tbaa !3
  %31 = call ptr @PyType_FromModuleAndSpec(ptr noundef %30, ptr noundef @sha3_256_spec, ptr noundef null)
  %32 = load ptr, ptr %4, align 8, !tbaa !8
  %33 = getelementptr inbounds nuw %struct.SHA3State, ptr %32, i32 0, i32 1
  store ptr %31, ptr %33, align 8, !tbaa !14
  %34 = load ptr, ptr %4, align 8, !tbaa !8
  %35 = getelementptr inbounds nuw %struct.SHA3State, ptr %34, i32 0, i32 1
  %36 = load ptr, ptr %35, align 8, !tbaa !14
  %37 = icmp eq ptr %36, null
  br i1 %37, label %38, label %39

38:                                               ; preds = %29
  store i32 -1, ptr %2, align 4
  store i32 1, ptr %5, align 4
  br label %139

39:                                               ; preds = %29
  %40 = load ptr, ptr %3, align 8, !tbaa !3
  %41 = load ptr, ptr %4, align 8, !tbaa !8
  %42 = getelementptr inbounds nuw %struct.SHA3State, ptr %41, i32 0, i32 1
  %43 = load ptr, ptr %42, align 8, !tbaa !14
  %44 = call i32 @PyModule_AddType(ptr noundef %40, ptr noundef %43)
  %45 = icmp slt i32 %44, 0
  br i1 %45, label %46, label %47

46:                                               ; preds = %39
  store i32 -1, ptr %2, align 4
  store i32 1, ptr %5, align 4
  br label %139

47:                                               ; preds = %39
  br label %48

48:                                               ; preds = %47
  br label %49

49:                                               ; preds = %48
  br label %50

50:                                               ; preds = %49
  %51 = load ptr, ptr %3, align 8, !tbaa !3
  %52 = call ptr @PyType_FromModuleAndSpec(ptr noundef %51, ptr noundef @sha3_384_spec, ptr noundef null)
  %53 = load ptr, ptr %4, align 8, !tbaa !8
  %54 = getelementptr inbounds nuw %struct.SHA3State, ptr %53, i32 0, i32 2
  store ptr %52, ptr %54, align 8, !tbaa !15
  %55 = load ptr, ptr %4, align 8, !tbaa !8
  %56 = getelementptr inbounds nuw %struct.SHA3State, ptr %55, i32 0, i32 2
  %57 = load ptr, ptr %56, align 8, !tbaa !15
  %58 = icmp eq ptr %57, null
  br i1 %58, label %59, label %60

59:                                               ; preds = %50
  store i32 -1, ptr %2, align 4
  store i32 1, ptr %5, align 4
  br label %139

60:                                               ; preds = %50
  %61 = load ptr, ptr %3, align 8, !tbaa !3
  %62 = load ptr, ptr %4, align 8, !tbaa !8
  %63 = getelementptr inbounds nuw %struct.SHA3State, ptr %62, i32 0, i32 2
  %64 = load ptr, ptr %63, align 8, !tbaa !15
  %65 = call i32 @PyModule_AddType(ptr noundef %61, ptr noundef %64)
  %66 = icmp slt i32 %65, 0
  br i1 %66, label %67, label %68

67:                                               ; preds = %60
  store i32 -1, ptr %2, align 4
  store i32 1, ptr %5, align 4
  br label %139

68:                                               ; preds = %60
  br label %69

69:                                               ; preds = %68
  br label %70

70:                                               ; preds = %69
  br label %71

71:                                               ; preds = %70
  %72 = load ptr, ptr %3, align 8, !tbaa !3
  %73 = call ptr @PyType_FromModuleAndSpec(ptr noundef %72, ptr noundef @sha3_512_spec, ptr noundef null)
  %74 = load ptr, ptr %4, align 8, !tbaa !8
  %75 = getelementptr inbounds nuw %struct.SHA3State, ptr %74, i32 0, i32 3
  store ptr %73, ptr %75, align 8, !tbaa !16
  %76 = load ptr, ptr %4, align 8, !tbaa !8
  %77 = getelementptr inbounds nuw %struct.SHA3State, ptr %76, i32 0, i32 3
  %78 = load ptr, ptr %77, align 8, !tbaa !16
  %79 = icmp eq ptr %78, null
  br i1 %79, label %80, label %81

80:                                               ; preds = %71
  store i32 -1, ptr %2, align 4
  store i32 1, ptr %5, align 4
  br label %139

81:                                               ; preds = %71
  %82 = load ptr, ptr %3, align 8, !tbaa !3
  %83 = load ptr, ptr %4, align 8, !tbaa !8
  %84 = getelementptr inbounds nuw %struct.SHA3State, ptr %83, i32 0, i32 3
  %85 = load ptr, ptr %84, align 8, !tbaa !16
  %86 = call i32 @PyModule_AddType(ptr noundef %82, ptr noundef %85)
  %87 = icmp slt i32 %86, 0
  br i1 %87, label %88, label %89

88:                                               ; preds = %81
  store i32 -1, ptr %2, align 4
  store i32 1, ptr %5, align 4
  br label %139

89:                                               ; preds = %81
  br label %90

90:                                               ; preds = %89
  br label %91

91:                                               ; preds = %90
  br label %92

92:                                               ; preds = %91
  %93 = load ptr, ptr %3, align 8, !tbaa !3
  %94 = call ptr @PyType_FromModuleAndSpec(ptr noundef %93, ptr noundef @SHAKE128_spec, ptr noundef null)
  %95 = load ptr, ptr %4, align 8, !tbaa !8
  %96 = getelementptr inbounds nuw %struct.SHA3State, ptr %95, i32 0, i32 4
  store ptr %94, ptr %96, align 8, !tbaa !17
  %97 = load ptr, ptr %4, align 8, !tbaa !8
  %98 = getelementptr inbounds nuw %struct.SHA3State, ptr %97, i32 0, i32 4
  %99 = load ptr, ptr %98, align 8, !tbaa !17
  %100 = icmp eq ptr %99, null
  br i1 %100, label %101, label %102

101:                                              ; preds = %92
  store i32 -1, ptr %2, align 4
  store i32 1, ptr %5, align 4
  br label %139

102:                                              ; preds = %92
  %103 = load ptr, ptr %3, align 8, !tbaa !3
  %104 = load ptr, ptr %4, align 8, !tbaa !8
  %105 = getelementptr inbounds nuw %struct.SHA3State, ptr %104, i32 0, i32 4
  %106 = load ptr, ptr %105, align 8, !tbaa !17
  %107 = call i32 @PyModule_AddType(ptr noundef %103, ptr noundef %106)
  %108 = icmp slt i32 %107, 0
  br i1 %108, label %109, label %110

109:                                              ; preds = %102
  store i32 -1, ptr %2, align 4
  store i32 1, ptr %5, align 4
  br label %139

110:                                              ; preds = %102
  br label %111

111:                                              ; preds = %110
  br label %112

112:                                              ; preds = %111
  br label %113

113:                                              ; preds = %112
  %114 = load ptr, ptr %3, align 8, !tbaa !3
  %115 = call ptr @PyType_FromModuleAndSpec(ptr noundef %114, ptr noundef @SHAKE256_spec, ptr noundef null)
  %116 = load ptr, ptr %4, align 8, !tbaa !8
  %117 = getelementptr inbounds nuw %struct.SHA3State, ptr %116, i32 0, i32 5
  store ptr %115, ptr %117, align 8, !tbaa !18
  %118 = load ptr, ptr %4, align 8, !tbaa !8
  %119 = getelementptr inbounds nuw %struct.SHA3State, ptr %118, i32 0, i32 5
  %120 = load ptr, ptr %119, align 8, !tbaa !18
  %121 = icmp eq ptr %120, null
  br i1 %121, label %122, label %123

122:                                              ; preds = %113
  store i32 -1, ptr %2, align 4
  store i32 1, ptr %5, align 4
  br label %139

123:                                              ; preds = %113
  %124 = load ptr, ptr %3, align 8, !tbaa !3
  %125 = load ptr, ptr %4, align 8, !tbaa !8
  %126 = getelementptr inbounds nuw %struct.SHA3State, ptr %125, i32 0, i32 5
  %127 = load ptr, ptr %126, align 8, !tbaa !18
  %128 = call i32 @PyModule_AddType(ptr noundef %124, ptr noundef %127)
  %129 = icmp slt i32 %128, 0
  br i1 %129, label %130, label %131

130:                                              ; preds = %123
  store i32 -1, ptr %2, align 4
  store i32 1, ptr %5, align 4
  br label %139

131:                                              ; preds = %123
  br label %132

132:                                              ; preds = %131
  br label %133

133:                                              ; preds = %132
  %134 = load ptr, ptr %3, align 8, !tbaa !3
  %135 = call i32 @PyModule_AddStringConstant(ptr noundef %134, ptr noundef @.str.2, ptr noundef @.str.3)
  %136 = icmp slt i32 %135, 0
  br i1 %136, label %137, label %138

137:                                              ; preds = %133
  store i32 -1, ptr %2, align 4
  store i32 1, ptr %5, align 4
  br label %139

138:                                              ; preds = %133
  store i32 0, ptr %2, align 4
  store i32 1, ptr %5, align 4
  br label %139

139:                                              ; preds = %138, %137, %130, %122, %109, %101, %88, %80, %67, %59, %46, %38, %25, %17
  call void @llvm.lifetime.end.p0(i64 8, ptr %4) #7
  %140 = load i32, ptr %2, align 4
  ret i32 %140
}