; Function Attrs: nounwind uwtable
define internal range(i32 -1, 1) i32 @_sha3_exec(ptr noundef %0) #0 {
  %2 = tail call ptr @PyModule_GetState(ptr noundef %0) #4
  %3 = tail call ptr @PyType_FromModuleAndSpec(ptr noundef %0, ptr noundef nonnull @sha3_224_spec, ptr noundef null) #4
  store ptr %3, ptr %2, align 8, !tbaa !3
  %4 = icmp eq ptr %3, null
  br i1 %4, label %45, label %5

5:                                                ; preds = %1
  %6 = tail call i32 @PyModule_AddType(ptr noundef %0, ptr noundef nonnull %3) #4
  %7 = icmp slt i32 %6, 0
  br i1 %7, label %45, label %8

8:                                                ; preds = %5
  %9 = tail call ptr @PyType_FromModuleAndSpec(ptr noundef %0, ptr noundef nonnull @sha3_256_spec, ptr noundef null) #4
  %10 = getelementptr inbounds nuw i8, ptr %2, i64 8
  store ptr %9, ptr %10, align 8, !tbaa !9
  %11 = icmp eq ptr %9, null
  br i1 %11, label %45, label %12

12:                                               ; preds = %8
  %13 = tail call i32 @PyModule_AddType(ptr noundef %0, ptr noundef nonnull %9) #4
  %14 = icmp slt i32 %13, 0
  br i1 %14, label %45, label %15

15:                                               ; preds = %12
  %16 = tail call ptr @PyType_FromModuleAndSpec(ptr noundef %0, ptr noundef nonnull @sha3_384_spec, ptr noundef null) #4
  %17 = getelementptr inbounds nuw i8, ptr %2, i64 16
  store ptr %16, ptr %17, align 8, !tbaa !10
  %18 = icmp eq ptr %16, null
  br i1 %18, label %45, label %19

19:                                               ; preds = %15
  %20 = tail call i32 @PyModule_AddType(ptr noundef %0, ptr noundef nonnull %16) #4
  %21 = icmp slt i32 %20, 0
  br i1 %21, label %45, label %22

22:                                               ; preds = %19
  %23 = tail call ptr @PyType_FromModuleAndSpec(ptr noundef %0, ptr noundef nonnull @sha3_512_spec, ptr noundef null) #4
  %24 = getelementptr inbounds nuw i8, ptr %2, i64 24
  store ptr %23, ptr %24, align 8, !tbaa !11
  %25 = icmp eq ptr %23, null
  br i1 %25, label %45, label %26

26:                                               ; preds = %22
  %27 = tail call i32 @PyModule_AddType(ptr noundef %0, ptr noundef nonnull %23) #4
  %28 = icmp slt i32 %27, 0
  br i1 %28, label %45, label %29

29:                                               ; preds = %26
  %30 = tail call ptr @PyType_FromModuleAndSpec(ptr noundef %0, ptr noundef nonnull @SHAKE128_spec, ptr noundef null) #4
  %31 = getelementptr inbounds nuw i8, ptr %2, i64 32
  store ptr %30, ptr %31, align 8, !tbaa !12
  %32 = icmp eq ptr %30, null
  br i1 %32, label %45, label %33

33:                                               ; preds = %29
  %34 = tail call i32 @PyModule_AddType(ptr noundef %0, ptr noundef nonnull %30) #4
  %35 = icmp slt i32 %34, 0
  br i1 %35, label %45, label %36

36:                                               ; preds = %33
  %37 = tail call ptr @PyType_FromModuleAndSpec(ptr noundef %0, ptr noundef nonnull @SHAKE256_spec, ptr noundef null) #4
  %38 = getelementptr inbounds nuw i8, ptr %2, i64 40
  store ptr %37, ptr %38, align 8, !tbaa !13
  %39 = icmp eq ptr %37, null
  br i1 %39, label %45, label %40

40:                                               ; preds = %36
  %41 = tail call i32 @PyModule_AddType(ptr noundef %0, ptr noundef nonnull %37) #4
  %42 = icmp slt i32 %41, 0
  br i1 %42, label %45, label %43

43:                                               ; preds = %40
  %44 = tail call i32 @PyModule_AddStringConstant(ptr noundef %0, ptr noundef nonnull @.str.2, ptr noundef nonnull @.str.3) #4
  %.lobit = ashr i32 %44, 31
  br label %45

45:                                               ; preds = %43, %40, %36, %33, %29, %26, %22, %19, %15, %12, %8, %5, %1
  %.0 = phi i32 [ -1, %1 ], [ -1, %5 ], [ -1, %8 ], [ -1, %12 ], [ -1, %15 ], [ -1, %19 ], [ -1, %22 ], [ -1, %26 ], [ -1, %29 ], [ -1, %33 ], [ -1, %36 ], [ -1, %40 ], [ %.lobit, %43 ]
  ret i32 %.0
}